target datalayout = "e-m:e-p270:32:32-p271:32:32-p272:64:64-i64:64-i128:128-f80:128-n8:16:32:64-S128"
target triple = "x86_64-pc-linux-gnu"

%"class.toku::range_buffer::iterator" = type { %"class.memarena::chunk_iterator", ptr, i64, i64, i64 }
%"class.memarena::chunk_iterator" = type <{ ptr, i32, [4 x i8] }>

; Function Attrs: mustprogress uwtable
define void @_ZN4toku12range_buffer8iterator19reset_current_chunkEv(ptr noundef nonnull align 8 dereferenceable(48) %0) #1 align 2 {
  %2 = alloca ptr, align 8
  store ptr %0, ptr %2, align 8, !tbaa !43
  %3 = load ptr, ptr %2, align 8
  %4 = getelementptr inbounds nuw %"class.toku::range_buffer::iterator", ptr %3, i32 0, i32 0
  %5 = getelementptr inbounds nuw %"class.toku::range_buffer::iterator", ptr %3, i32 0, i32 3
  %6 = call noundef ptr @_ZNK8memarena14chunk_iterator7currentEPm(ptr noundef nonnull align 8 dereferenceable(12) %4, ptr noundef %5)
  %7 = getelementptr inbounds nuw %"class.toku::range_buffer::iterator", ptr %3, i32 0, i32 1
  store ptr %6, ptr %7, align 8, !tbaa !45
  %8 = getelementptr inbounds nuw %"class.toku::range_buffer::iterator", ptr %3, i32 0, i32 2
  store i64 0, ptr %8, align 8, !tbaa !49
  ret void
}