; Function Attrs: mustprogress uwtable
define void @_ZN4toku12range_buffer8iterator19reset_current_chunkEv(ptr noundef nonnull align 8 dereferenceable(48) %0) local_unnamed_addr #1 align 2 {
  %2 = getelementptr inbounds nuw i8, ptr %0, i64 32
  %3 = tail call noundef ptr @_ZNK8memarena14chunk_iterator7currentEPm(ptr noundef nonnull align 8 dereferenceable(12) %0, ptr noundef nonnull %2)
  %4 = getelementptr inbounds nuw i8, ptr %0, i64 16
  store ptr %3, ptr %4, align 8, !tbaa !34
  %5 = getelementptr inbounds nuw i8, ptr %0, i64 24
  store i64 0, ptr %5, align 8, !tbaa !36
  ret void
}